target datalayout = "e-m:e-p270:32:32-p271:32:32-p272:64:64-i64:64-i128:128-f80:128-n8:16:32:64-S128"
target triple = "x86_64-pc-linux-gnu"

%struct._zend_array = type { %struct._zend_refcounted_h, %union.anon.17, i32, %union.anon.19, i32, i32, i32, i32, i64, ptr }
%struct._zend_refcounted_h = type { i32, %union.anon.16 }
%union.anon.16 = type { i32 }
%union.anon.17 = type { i32 }
%union.anon.19 = type { ptr }
%struct._zend_stack = type { i32, i32, i32, ptr }
%struct._zend_executor_globals = type { %struct._zval_struct, %struct._zval_struct, [32 x ptr], ptr, ptr, %struct._zend_array, %struct._zend_array, ptr, i32, i32, ptr, ptr, ptr, ptr, ptr, ptr, i64, ptr, ptr, i32, i32, i64, i32, i32, i32, i8, i8, %struct.zend_atomic_bool_s, %struct.zend_atomic_bool_s, ptr, i64, ptr, ptr, %struct._zend_array, %struct._zend_array, i32, i8, %struct._zval_struct, %struct._zval_struct, %struct._zend_stack, %struct._zend_stack, %struct._zend_stack, ptr, i32, i32, i64, ptr, ptr, ptr, %struct._zend_objects_store, ptr, ptr, ptr, [3 x %struct._zend_op], ptr, i8, i8, i64, i32, i32, ptr, [16 x %struct._HashTableIterator], ptr, %union._zend_function, %struct._zend_op, %struct._zend_array, i64, %struct.zend_get_gc_buffer, ptr, ptr, ptr, i64, i8, i32, ptr, ptr, i64, %struct._zend_call_stack, i64, i64, [6 x ptr] }
%struct.zend_atomic_bool_s = type { i8 }
%struct._zval_struct = type { %union._zend_value, %union.anon.21, %union.anon.24 }
%union._zend_value = type { i64 }
%union.anon.21 = type { i32 }
%union.anon.24 = type { i32 }
%struct._zend_objects_store = type { ptr, i32, i32, i32 }
%struct._HashTableIterator = type { ptr, i32, i32 }
%union._zend_function = type { %struct._zend_op_array }
%struct._zend_op_array = type { i8, [3 x i8], i32, ptr, ptr, ptr, i32, i32, ptr, ptr, ptr, ptr, i32, i32, i32, i32, ptr, ptr, ptr, ptr, ptr, i32, i32, ptr, ptr, ptr, i32, i32, i32, i32, ptr, ptr, [6 x ptr] }
%struct._zend_op = type { ptr, %union._znode_op, %union._znode_op, %union._znode_op, i32, i32, i8, i8, i8, i8 }
%union._znode_op = type { i32 }
%struct.zend_get_gc_buffer = type { ptr, ptr, ptr }
%struct._zend_call_stack = type { ptr, i64 }
%struct._ir_ctx = type { ptr, i32, i32, i32, i32, i32, i32, i32, i32, i32, i32, %struct._ir_insn, ptr, ptr, ptr, i32, i32, i32, ptr, ptr, ptr, ptr, ptr, i32, i32, i64, i32, i32, i32, i64, i32, i32, i32, i32, ptr, ptr, ptr, ptr, ptr, ptr, %union.anon.13, ptr, i32, i32, i32, i64, i32, i32, i32, ptr, ptr, ptr, ptr, %struct._ir_strtab, [61 x i32], [14 x i32] }
%struct._ir_insn = type { %struct.anon, %union.anon.5 }
%struct.anon = type { %union.anon, %union.anon.4 }
%union.anon = type { i32 }
%union.anon.4 = type { i32 }
%union.anon.5 = type { %union._ir_val }
%union._ir_val = type { double }
%union.anon.13 = type { ptr }
%struct._ir_strtab = type { ptr, i32, i32, i32, i32, ptr, i32, i32 }
%struct._zend_jit_ctx = type { %struct._ir_ctx, ptr, i8, i8, i8, i32, i32, i32, i32, i32, ptr, ptr, ptr, ptr, ptr, ptr, ptr, ptr, ptr, i32, ptr, i32, %struct._zend_array, [32 x i32] }
%struct.anon.0 = type { %union.anon.1, %union.anon.3 }
%union.anon.1 = type { i16 }
%union.anon.3 = type { i16 }
%struct.anon.2 = type { i8, i8 }

@executor_globals = external global %struct._zend_executor_globals, align 8
@zend_jit_vm_kind = internal global i32 0, align 4

; Function Attrs: nounwind uwtable
define internal i32 @jit_CONST_FUNC_PROTO(ptr noundef %0, i64 noundef %1, i32 noundef %2) #0 {
  %4 = alloca ptr, align 8
  %5 = alloca ptr, align 8
  %6 = alloca i64, align 8
  %7 = alloca i32, align 4
  %8 = alloca i32, align 4
  %9 = alloca ptr, align 8
  %10 = alloca ptr, align 8
  %11 = alloca ptr, align 8
  store ptr %0, ptr %5, align 8
  store i64 %1, ptr %6, align 8
  store i32 %2, ptr %7, align 4
  %12 = load i64, ptr %6, align 8
  %13 = icmp ne i64 %12, 0
  call void @llvm.assume(i1 %13)
  %14 = load ptr, ptr %5, align 8
  %15 = getelementptr inbounds %struct._zend_jit_ctx, ptr %14, i32 0, i32 22
  %16 = load i64, ptr %6, align 8
  %17 = call ptr @zend_hash_index_lookup(ptr noundef %15, i64 noundef %16)
  store ptr %17, ptr %10, align 8
  %18 = load ptr, ptr %10, align 8
  store ptr %18, ptr %4, align 8
  %19 = load ptr, ptr %4, align 8
  %20 = getelementptr inbounds %struct._zval_struct, ptr %19, i32 0, i32 1
  %21 = load i8, ptr %20, align 8
  %22 = zext i8 %21 to i32
  %23 = icmp eq i32 %22, 4
  br i1 %23, label %24, label %59

24:                                               ; preds = %3
  %25 = load ptr, ptr %10, align 8
  %26 = getelementptr inbounds %struct._zval_struct, ptr %25, i32 0, i32 0
  %27 = load i64, ptr %26, align 8
  %28 = trunc i64 %27 to i32
  store i32 %28, ptr %8, align 4
  %29 = load ptr, ptr %5, align 8
  %30 = getelementptr inbounds %struct._zend_jit_ctx, ptr %29, i32 0, i32 0
  %31 = getelementptr inbounds %struct._ir_ctx, ptr %30, i32 0, i32 0
  %32 = load ptr, ptr %31, align 8
  %33 = load i32, ptr %8, align 4
  %34 = sext i32 %33 to i64
  %35 = getelementptr inbounds %struct._ir_insn, ptr %32, i64 %34
  %36 = getelementptr inbounds %struct._ir_insn, ptr %35, i32 0, i32 0
  %37 = getelementptr inbounds %struct.anon, ptr %36, i32 0, i32 0
  %38 = getelementptr inbounds %struct.anon.0, ptr %37, i32 0, i32 0
  %39 = load i16, ptr %38, align 8
  %40 = zext i16 %39 to i32
  %41 = icmp eq i32 %40, 1601
  br i1 %41, label %42, label %57

42:                                               ; preds = %24
  %43 = load ptr, ptr %5, align 8
  %44 = getelementptr inbounds %struct._zend_jit_ctx, ptr %43, i32 0, i32 0
  %45 = getelementptr inbounds %struct._ir_ctx, ptr %44, i32 0, i32 0
  %46 = load ptr, ptr %45, align 8
  %47 = load i32, ptr %8, align 4
  %48 = sext i32 %47 to i64
  %49 = getelementptr inbounds %struct._ir_insn, ptr %46, i64 %48
  %50 = getelementptr inbounds %struct._ir_insn, ptr %49, i32 0, i32 0
  %51 = getelementptr inbounds %struct.anon, ptr %50, i32 0, i32 0
  %52 = getelementptr inbounds %struct.anon.0, ptr %51, i32 0, i32 1
  %53 = load i16, ptr %52, align 2
  %54 = zext i16 %53 to i32
  %55 = load i32, ptr %7, align 4
  %56 = icmp eq i32 %54, %55
  br label %57

57:                                               ; preds = %42, %24
  %58 = phi i1 [ false, %24 ], [ %56, %42 ]
  call void @llvm.assume(i1 %58)
  br label %89

59:                                               ; preds = %3
  %60 = load ptr, ptr %5, align 8
  %61 = getelementptr inbounds %struct._zend_jit_ctx, ptr %60, i32 0, i32 0
  %62 = load i64, ptr %6, align 8
  %63 = call i32 @ir_unique_const_addr(ptr noundef %61, i64 noundef %62)
  store i32 %63, ptr %8, align 4
  %64 = load ptr, ptr %5, align 8
  %65 = getelementptr inbounds %struct._zend_jit_ctx, ptr %64, i32 0, i32 0
  %66 = getelementptr inbounds %struct._ir_ctx, ptr %65, i32 0, i32 0
  %67 = load ptr, ptr %66, align 8
  %68 = load i32, ptr %8, align 4
  %69 = sext i32 %68 to i64
  %70 = getelementptr inbounds %struct._ir_insn, ptr %67, i64 %69
  store ptr %70, ptr %9, align 8
  %71 = load ptr, ptr %9, align 8
  %72 = getelementptr inbounds %struct._ir_insn, ptr %71, i32 0, i32 0
  %73 = getelementptr inbounds %struct.anon, ptr %72, i32 0, i32 0
  store i32 1601, ptr %73, align 8
  %74 = load i32, ptr %7, align 4
  %75 = trunc i32 %74 to i16
  %76 = load ptr, ptr %9, align 8
  %77 = getelementptr inbounds %struct._ir_insn, ptr %76, i32 0, i32 0
  %78 = getelementptr inbounds %struct.anon, ptr %77, i32 0, i32 0
  %79 = getelementptr inbounds %struct.anon.0, ptr %78, i32 0, i32 1
  store i16 %75, ptr %79, align 2
  br label %80

80:                                               ; preds = %59
  %81 = load ptr, ptr %10, align 8
  store ptr %81, ptr %11, align 8
  %82 = load i32, ptr %8, align 4
  %83 = sext i32 %82 to i64
  %84 = load ptr, ptr %11, align 8
  %85 = getelementptr inbounds %struct._zval_struct, ptr %84, i32 0, i32 0
  store i64 %83, ptr %85, align 8
  %86 = load ptr, ptr %11, align 8
  %87 = getelementptr inbounds %struct._zval_struct, ptr %86, i32 0, i32 1
  store i32 4, ptr %87, align 8
  br label %88

88:                                               ; preds = %80
  br label %89

89:                                               ; preds = %88, %57
  %90 = load i32, ptr %8, align 4
  ret i32 %90
}

; Function Attrs: nounwind uwtable
define internal i32 @jit_FP(ptr noundef %0) #0 {
  %2 = alloca ptr, align 8
  %3 = alloca ptr, align 8
  %4 = alloca i32, align 4
  store ptr %0, ptr %2, align 8
  %5 = load ptr, ptr %2, align 8
  %6 = getelementptr inbounds %struct._zend_jit_ctx, ptr %5, i32 0, i32 0
  %7 = getelementptr inbounds %struct._ir_ctx, ptr %6, i32 0, i32 40
  %8 = load i32, ptr %7, align 8
  %9 = icmp ne i32 %8, 0
  call void @llvm.assume(i1 %9)
  %10 = load ptr, ptr %2, align 8
  %11 = getelementptr inbounds %struct._zend_jit_ctx, ptr %10, i32 0, i32 7
  %12 = load i32, ptr %11, align 4
  %13 = icmp eq i32 %12, 0
  br i1 %13, label %14, label %20

14:                                               ; preds = %1
  %15 = load ptr, ptr %2, align 8
  %16 = getelementptr inbounds %struct._zend_jit_ctx, ptr %15, i32 0, i32 0
  %17 = call i32 @_ir_RLOAD(ptr noundef %16, i32 noundef 6, i32 noundef 14)
  %18 = load ptr, ptr %2, align 8
  %19 = getelementptr inbounds %struct._zend_jit_ctx, ptr %18, i32 0, i32 7
  store i32 %17, ptr %19, align 4
  br label %69

20:                                               ; preds = %1
  %21 = load ptr, ptr %2, align 8
  %22 = getelementptr inbounds %struct._zend_jit_ctx, ptr %21, i32 0, i32 0
  %23 = getelementptr inbounds %struct._ir_ctx, ptr %22, i32 0, i32 40
  %24 = load i32, ptr %23, align 8
  store i32 %24, ptr %4, align 4
  br label %25

25:                                               ; preds = %63, %20
  %26 = load i32, ptr %4, align 4
  %27 = load ptr, ptr %2, align 8
  %28 = getelementptr inbounds %struct._zend_jit_ctx, ptr %27, i32 0, i32 7
  %29 = load i32, ptr %28, align 4
  %30 = icmp eq i32 %26, %29
  br i1 %30, label %31, label %32

31:                                               ; preds = %25
  br label %68

32:                                               ; preds = %25
  %33 = load ptr, ptr %2, align 8
  %34 = getelementptr inbounds %struct._zend_jit_ctx, ptr %33, i32 0, i32 0
  %35 = getelementptr inbounds %struct._ir_ctx, ptr %34, i32 0, i32 0
  %36 = load ptr, ptr %35, align 8
  %37 = load i32, ptr %4, align 4
  %38 = sext i32 %37 to i64
  %39 = getelementptr inbounds %struct._ir_insn, ptr %36, i64 %38
  store ptr %39, ptr %3, align 8
  %40 = load ptr, ptr %3, align 8
  %41 = getelementptr inbounds %struct._ir_insn, ptr %40, i32 0, i32 0
  %42 = getelementptr inbounds %struct.anon, ptr %41, i32 0, i32 0
  %43 = getelementptr inbounds %struct.anon.0, ptr %42, i32 0, i32 0
  %44 = getelementptr inbounds %struct.anon.2, ptr %43, i32 0, i32 0
  %45 = load i8, ptr %44, align 8
  %46 = zext i8 %45 to i32
  %47 = icmp sge i32 %46, 89
  br i1 %47, label %57, label %48

48:                                               ; preds = %32
  %49 = load ptr, ptr %3, align 8
  %50 = getelementptr inbounds %struct._ir_insn, ptr %49, i32 0, i32 0
  %51 = getelementptr inbounds %struct.anon, ptr %50, i32 0, i32 0
  %52 = getelementptr inbounds %struct.anon.0, ptr %51, i32 0, i32 0
  %53 = getelementptr inbounds %struct.anon.2, ptr %52, i32 0, i32 0
  %54 = load i8, ptr %53, align 8
  %55 = zext i8 %54 to i32
  %56 = icmp eq i32 %55, 69
  br i1 %56, label %57, label %63

57:                                               ; preds = %48, %32
  %58 = load ptr, ptr %2, align 8
  %59 = getelementptr inbounds %struct._zend_jit_ctx, ptr %58, i32 0, i32 0
  %60 = call i32 @_ir_RLOAD(ptr noundef %59, i32 noundef 6, i32 noundef 14)
  %61 = load ptr, ptr %2, align 8
  %62 = getelementptr inbounds %struct._zend_jit_ctx, ptr %61, i32 0, i32 7
  store i32 %60, ptr %62, align 4
  br label %68

63:                                               ; preds = %48
  %64 = load ptr, ptr %3, align 8
  %65 = getelementptr inbounds %struct._ir_insn, ptr %64, i32 0, i32 0
  %66 = getelementptr inbounds %struct.anon, ptr %65, i32 0, i32 1
  %67 = load i32, ptr %66, align 4
  store i32 %67, ptr %4, align 4
  br label %25

68:                                               ; preds = %57, %31
  br label %69

69:                                               ; preds = %68, %14
  %70 = load ptr, ptr %2, align 8
  %71 = getelementptr inbounds %struct._zend_jit_ctx, ptr %70, i32 0, i32 7
  %72 = load i32, ptr %71, align 4
  ret i32 %72
}

; Function Attrs: nounwind uwtable
define internal i32 @jit_IP(ptr noundef %0) #0 {
  %2 = alloca ptr, align 8
  store ptr %0, ptr %2, align 8
  %3 = load ptr, ptr %2, align 8
  %4 = getelementptr inbounds %struct._zend_jit_ctx, ptr %3, i32 0, i32 0
  %5 = call i32 @_ir_RLOAD(ptr noundef %4, i32 noundef 6, i32 noundef 15)
  ret i32 %5
}

; Function Attrs: nounwind uwtable
define internal i32 @jit_CONST_FUNC(ptr noundef %0, i64 noundef %1, i16 noundef zeroext %2) #0 {
  %4 = alloca ptr, align 8
  %5 = alloca i64, align 8
  %6 = alloca i16, align 2
  %7 = alloca i32, align 4
  store ptr %0, ptr %4, align 8
  store i64 %1, ptr %5, align 8
  store i16 %2, ptr %6, align 2
  store i32 0, ptr %7, align 4
  %8 = load ptr, ptr %4, align 8
  %9 = load i64, ptr %5, align 8
  %10 = load i32, ptr %7, align 4
  %11 = call i32 @jit_CONST_FUNC_PROTO(ptr noundef %8, i64 noundef %9, i32 noundef %10)
  ret i32 %11
}

; Function Attrs: nounwind uwtable
define internal i32 @zend_jit_exception_handler_stub(ptr noundef %0) #0 {
  %2 = alloca ptr, align 8
  %3 = alloca ptr, align 8
  %4 = alloca i32, align 4
  %5 = alloca i32, align 4
  %6 = alloca i32, align 4
  store ptr %0, ptr %2, align 8
  %7 = load i32, ptr @zend_jit_vm_kind, align 4
  %8 = icmp eq i32 %7, 4
  br i1 %8, label %9, label %25

9:                                                ; preds = %1
  %10 = call ptr @zend_get_opcode_handler_func(ptr noundef getelementptr inbounds (%struct._zend_executor_globals, ptr @executor_globals, i32 0, i32 53))
  store ptr %10, ptr %3, align 8
  %11 = load ptr, ptr %2, align 8
  %12 = getelementptr inbounds %struct._zend_jit_ctx, ptr %11, i32 0, i32 0
  %13 = load ptr, ptr %2, align 8
  %14 = load ptr, ptr %3, align 8
  %15 = ptrtoint ptr %14 to i64
  %16 = call i32 @jit_CONST_FUNC(ptr noundef %13, i64 noundef %15, i16 noundef zeroext 0)
  %17 = call i32 @_ir_CALL(ptr noundef %12, i32 noundef 0, i32 noundef %16)
  %18 = load ptr, ptr %2, align 8
  %19 = getelementptr inbounds %struct._zend_jit_ctx, ptr %18, i32 0, i32 0
  %20 = load ptr, ptr %2, align 8
  %21 = getelementptr inbounds %struct._zend_jit_ctx, ptr %20, i32 0, i32 0
  %22 = load ptr, ptr %2, align 8
  %23 = call i32 @jit_IP(ptr noundef %22)
  %24 = call i32 @_ir_LOAD(ptr noundef %21, i32 noundef 6, i32 noundef %23)
  call void @_ir_TAILCALL(ptr noundef %19, i32 noundef 0, i32 noundef %24)
  br label %73

25:                                               ; preds = %1
  %26 = load ptr, ptr getelementptr inbounds (%struct._zend_executor_globals, ptr @executor_globals, i32 0, i32 53), align 8
  store ptr %26, ptr %3, align 8
  %27 = load ptr, ptr %2, align 8
  %28 = getelementptr inbounds %struct._zend_jit_ctx, ptr %27, i32 0, i32 0
  %29 = load ptr, ptr %2, align 8
  %30 = load ptr, ptr %3, align 8
  %31 = ptrtoint ptr %30 to i64
  %32 = call i32 @jit_CONST_FUNC(ptr noundef %29, i64 noundef %31, i16 noundef zeroext 2)
  %33 = load ptr, ptr %2, align 8
  %34 = call i32 @jit_FP(ptr noundef %33)
  %35 = call i32 @_ir_CALL_1(ptr noundef %28, i32 noundef 10, i32 noundef %32, i32 noundef %34)
  store i32 %35, ptr %4, align 4
  %36 = load ptr, ptr %2, align 8
  %37 = getelementptr inbounds %struct._zend_jit_ctx, ptr %36, i32 0, i32 0
  %38 = load ptr, ptr %2, align 8
  %39 = getelementptr inbounds %struct._zend_jit_ctx, ptr %38, i32 0, i32 0
  %40 = load i32, ptr %4, align 4
  %41 = load ptr, ptr %2, align 8
  %42 = getelementptr inbounds %struct._zend_jit_ctx, ptr %41, i32 0, i32 0
  %43 = call i32 @ir_const_u32(ptr noundef %42, i32 noundef 0)
  %44 = call i32 @ir_fold2(ptr noundef %39, i32 noundef 272, i32 noundef %40, i32 noundef %43)
  %45 = call i32 @_ir_IF(ptr noundef %37, i32 noundef %44)
  store i32 %45, ptr %5, align 4
  %46 = load ptr, ptr %2, align 8
  %47 = getelementptr inbounds %struct._zend_jit_ctx, ptr %46, i32 0, i32 0
  %48 = load i32, ptr %5, align 4
  call void @_ir_IF_TRUE(ptr noundef %47, i32 noundef %48)
  br label %49

49:                                               ; preds = %25
  %50 = load ptr, ptr %2, align 8
  %51 = getelementptr inbounds %struct._zend_jit_ctx, ptr %50, i32 0, i32 0
  %52 = call i32 @_ir_END(ptr noundef %51)
  store i32 %52, ptr %6, align 4
  %53 = load ptr, ptr %2, align 8
  %54 = getelementptr inbounds %struct._zend_jit_ctx, ptr %53, i32 0, i32 0
  %55 = load i32, ptr %5, align 4
  call void @_ir_IF_FALSE(ptr noundef %54, i32 noundef %55)
  %56 = load ptr, ptr %2, align 8
  %57 = getelementptr inbounds %struct._zend_jit_ctx, ptr %56, i32 0, i32 0
  %58 = load i32, ptr %6, align 4
  %59 = load ptr, ptr %2, align 8
  %60 = getelementptr inbounds %struct._zend_jit_ctx, ptr %59, i32 0, i32 0
  %61 = call i32 @_ir_END(ptr noundef %60)
  call void @_ir_MERGE_2(ptr noundef %57, i32 noundef %58, i32 noundef %61)
  br label %62

62:                                               ; preds = %49
  %63 = load ptr, ptr %2, align 8
  %64 = getelementptr inbounds %struct._zend_jit_ctx, ptr %63, i32 0, i32 0
  %65 = load i32, ptr %4, align 4
  %66 = load ptr, ptr %2, align 8
  %67 = getelementptr inbounds %struct._zend_jit_ctx, ptr %66, i32 0, i32 0
  %68 = call i32 @ir_const_i32(ptr noundef %67, i32 noundef 1)
  %69 = call i32 @_ir_PHI_2(ptr noundef %64, i32 noundef 10, i32 noundef %65, i32 noundef %68)
  store i32 %69, ptr %4, align 4
  %70 = load ptr, ptr %2, align 8
  %71 = getelementptr inbounds %struct._zend_jit_ctx, ptr %70, i32 0, i32 0
  %72 = load i32, ptr %4, align 4
  call void @_ir_RETURN(ptr noundef %71, i32 noundef %72)
  br label %73

73:                                               ; preds = %62, %9
  ret i32 1
}