; Function Attrs: nounwind uwtable
define internal noundef i32 @zend_jit_exception_handler_stub(ptr noundef %0) #0 {
  %2 = load i32, ptr @zend_jit_vm_kind, align 4
  %3 = icmp eq i32 %2, 4
  br i1 %3, label %4, label %35

4:                                                ; preds = %1
  %5 = tail call ptr @zend_get_opcode_handler_func(ptr noundef nonnull getelementptr inbounds (%struct._zend_executor_globals, ptr @executor_globals, i64 0, i32 53)) #32
  %6 = ptrtoint ptr %5 to i64
  %7 = icmp ne ptr %5, null
  tail call void @llvm.assume(i1 %7)
  %8 = getelementptr inbounds i8, ptr %0, i64 808
  %9 = tail call ptr @zend_hash_index_lookup(ptr noundef nonnull %8, i64 noundef %6) #32
  %10 = getelementptr inbounds i8, ptr %9, i64 8
  %11 = load i8, ptr %10, align 8
  %12 = icmp eq i8 %11, 4
  br i1 %12, label %13, label %27

13:                                               ; preds = %4
  %14 = load i64, ptr %9, align 8
  %15 = trunc i64 %14 to i32
  %16 = load ptr, ptr %0, align 8
  %sext.i.i = shl i64 %14, 32
  %17 = ashr exact i64 %sext.i.i, 32
  %18 = getelementptr inbounds %struct._ir_insn, ptr %16, i64 %17
  %19 = load i16, ptr %18, align 8
  %20 = icmp eq i16 %19, 1601
  br i1 %20, label %21, label %25

21:                                               ; preds = %13
  %22 = getelementptr inbounds i8, ptr %18, i64 2
  %23 = load i16, ptr %22, align 2
  %24 = icmp eq i16 %23, 0
  br label %25

25:                                               ; preds = %21, %13
  %26 = phi i1 [ false, %13 ], [ %24, %21 ]
  tail call void @llvm.assume(i1 %26)
  br label %jit_CONST_FUNC.exit

27:                                               ; preds = %4
  %28 = tail call i32 @ir_unique_const_addr(ptr noundef %0, i64 noundef %6) #32
  %29 = load ptr, ptr %0, align 8
  %30 = sext i32 %28 to i64
  %31 = getelementptr inbounds %struct._ir_insn, ptr %29, i64 %30
  store i32 1601, ptr %31, align 8
  store i64 %30, ptr %9, align 8
  store i32 4, ptr %10, align 8
  br label %jit_CONST_FUNC.exit

jit_CONST_FUNC.exit:                              ; preds = %25, %27
  %.0.i.i = phi i32 [ %15, %25 ], [ %28, %27 ]
  %32 = tail call i32 @_ir_CALL(ptr noundef nonnull %0, i32 noundef 0, i32 noundef %.0.i.i) #32
  %33 = tail call i32 @_ir_RLOAD(ptr noundef nonnull %0, i32 noundef 6, i32 noundef 15) #32
  %34 = tail call i32 @_ir_LOAD(ptr noundef nonnull %0, i32 noundef 6, i32 noundef %33) #32
  tail call void @_ir_TAILCALL(ptr noundef nonnull %0, i32 noundef 0, i32 noundef %34) #32
  br label %90

35:                                               ; preds = %1
  %36 = load ptr, ptr getelementptr inbounds (%struct._zend_executor_globals, ptr @executor_globals, i64 0, i32 53), align 8, !nonnull !6, !noundef !6
  %37 = ptrtoint ptr %36 to i64
  %38 = getelementptr inbounds i8, ptr %0, i64 808
  %39 = tail call ptr @zend_hash_index_lookup(ptr noundef nonnull %38, i64 noundef %37) #32
  %40 = getelementptr inbounds i8, ptr %39, i64 8
  %41 = load i8, ptr %40, align 8
  %42 = icmp eq i8 %41, 4
  br i1 %42, label %43, label %57

43:                                               ; preds = %35
  %44 = load i64, ptr %39, align 8
  %45 = trunc i64 %44 to i32
  %46 = load ptr, ptr %0, align 8
  %sext.i.i27 = shl i64 %44, 32
  %47 = ashr exact i64 %sext.i.i27, 32
  %48 = getelementptr inbounds %struct._ir_insn, ptr %46, i64 %47
  %49 = load i16, ptr %48, align 8
  %50 = icmp eq i16 %49, 1601
  br i1 %50, label %51, label %55

51:                                               ; preds = %43
  %52 = getelementptr inbounds i8, ptr %48, i64 2
  %53 = load i16, ptr %52, align 2
  %54 = icmp eq i16 %53, 0
  br label %55

55:                                               ; preds = %51, %43
  %56 = phi i1 [ false, %43 ], [ %54, %51 ]
  tail call void @llvm.assume(i1 %56)
  br label %jit_CONST_FUNC.exit28

57:                                               ; preds = %35
  %58 = tail call i32 @ir_unique_const_addr(ptr noundef %0, i64 noundef %37) #32
  %59 = load ptr, ptr %0, align 8
  %60 = sext i32 %58 to i64
  %61 = getelementptr inbounds %struct._ir_insn, ptr %59, i64 %60
  store i32 1601, ptr %61, align 8
  store i64 %60, ptr %39, align 8
  store i32 4, ptr %40, align 8
  br label %jit_CONST_FUNC.exit28

jit_CONST_FUNC.exit28:                            ; preds = %55, %57
  %.0.i.i26 = phi i32 [ %45, %55 ], [ %58, %57 ]
  %62 = getelementptr inbounds i8, ptr %0, i64 248
  %63 = load i32, ptr %62, align 8
  %64 = icmp ne i32 %63, 0
  tail call void @llvm.assume(i1 %64)
  %65 = getelementptr inbounds i8, ptr %0, i64 700
  %66 = load i32, ptr %65, align 4
  %67 = icmp eq i32 %66, 0
  br i1 %67, label %.loopexit.sink.split.i, label %.preheader.i

.preheader.i:                                     ; preds = %jit_CONST_FUNC.exit28
  %68 = icmp eq i32 %63, %66
  br i1 %68, label %jit_FP.exit, label %.lr.ph.i

.lr.ph.i:                                         ; preds = %.preheader.i
  %69 = load ptr, ptr %0, align 8
  br label %70

70:                                               ; preds = %76, %.lr.ph.i
  %.015.i = phi i32 [ %63, %.lr.ph.i ], [ %78, %76 ]
  %71 = sext i32 %.015.i to i64
  %72 = getelementptr inbounds %struct._ir_insn, ptr %69, i64 %71
  %73 = load i8, ptr %72, align 8
  %74 = icmp ugt i8 %73, 88
  %75 = icmp eq i8 %73, 69
  %or.cond.i = or i1 %74, %75
  br i1 %or.cond.i, label %.loopexit.sink.split.i, label %76

76:                                               ; preds = %70
  %77 = getelementptr inbounds i8, ptr %72, i64 4
  %78 = load i32, ptr %77, align 4
  %79 = icmp eq i32 %78, %66
  br i1 %79, label %jit_FP.exit, label %70

.loopexit.sink.split.i:                           ; preds = %70, %jit_CONST_FUNC.exit28
  %80 = tail call i32 @_ir_RLOAD(ptr noundef nonnull %0, i32 noundef 6, i32 noundef 14) #32
  store i32 %80, ptr %65, align 4
  br label %jit_FP.exit

jit_FP.exit:                                      ; preds = %76, %.preheader.i, %.loopexit.sink.split.i
  %81 = phi i32 [ %63, %.preheader.i ], [ %80, %.loopexit.sink.split.i ], [ %66, %76 ]
  %82 = tail call i32 @_ir_CALL_1(ptr noundef %0, i32 noundef 10, i32 noundef %.0.i.i26, i32 noundef %81) #32
  %83 = tail call i32 @ir_const_u32(ptr noundef %0, i32 noundef 0) #32
  %84 = tail call i32 @ir_fold2(ptr noundef %0, i32 noundef 272, i32 noundef %82, i32 noundef %83) #32
  %85 = tail call i32 @_ir_IF(ptr noundef %0, i32 noundef %84) #32
  tail call void @_ir_IF_TRUE(ptr noundef %0, i32 noundef %85) #32
  %86 = tail call i32 @_ir_END(ptr noundef %0) #32
  tail call void @_ir_IF_FALSE(ptr noundef %0, i32 noundef %85) #32
  %87 = tail call i32 @_ir_END(ptr noundef %0) #32
  tail call void @_ir_MERGE_2(ptr noundef %0, i32 noundef %86, i32 noundef %87) #32
  %88 = tail call i32 @ir_const_i32(ptr noundef %0, i32 noundef 1) #32
  %89 = tail call i32 @_ir_PHI_2(ptr noundef %0, i32 noundef 10, i32 noundef %82, i32 noundef %88) #32
  tail call void @_ir_RETURN(ptr noundef %0, i32 noundef %89) #32
  br label %90

90:                                               ; preds = %jit_FP.exit, %jit_CONST_FUNC.exit
  ret i32 1
}